; Function Attrs: mustprogress uwtable
define void @_ZN5nblib23GmxNBForceCalculatorCpu7computeEN3gmx8ArrayRefIKNS1_11BasicVectorIfEEEERKNS_3BoxENS2_IS4_EE(ptr nocapture noundef nonnull readonly align 8 dereferenceable(8) %0, ptr %1, ptr %2, ptr noundef nonnull align 4 dereferenceable(36) %3, ptr %4, ptr %5) local_unnamed_addr #0 align 2 {
  %7 = alloca %"class.gmx::ArrayRef.0", align 8
  %8 = alloca %"class.gmx::ArrayRef.0", align 8
  %9 = load ptr, ptr %0, align 8
  %10 = ptrtoint ptr %2 to i64
  %11 = ptrtoint ptr %1 to i64
  %12 = sub i64 %10, %11
  %13 = getelementptr inbounds i8, ptr %1, i64 %12
  %14 = ptrtoint ptr %5 to i64
  %15 = ptrtoint ptr %4 to i64
  %16 = sub i64 %14, %15
  %17 = getelementptr inbounds i8, ptr %4, i64 %16
  call void @llvm.lifetime.start.p0(i64 16, ptr nonnull %7)
  call void @llvm.lifetime.start.p0(i64 16, ptr nonnull %8)
  call void @llvm.memset.p0.i64(ptr noundef nonnull align 8 dereferenceable(16) %7, i8 0, i64 16, i1 false)
  call void @llvm.memset.p0.i64(ptr noundef nonnull align 8 dereferenceable(16) %8, i8 0, i64 16, i1 false)
  tail call void @_ZN5nblib23GmxNBForceCalculatorCpu7CpuImpl7computeEN3gmx8ArrayRefIKNS2_11BasicVectorIfEEEERKNS_3BoxENS3_IS5_EENS3_IfEESC_(ptr noundef nonnull align 8 dereferenceable(2584) %9, ptr %1, ptr %13, ptr noundef nonnull align 4 dereferenceable(36) %3, ptr %4, ptr %17, ptr noundef nonnull byval(%"class.gmx::ArrayRef.0") align 8 %7, ptr noundef nonnull byval(%"class.gmx::ArrayRef.0") align 8 %8)
  call void @llvm.lifetime.end.p0(i64 16, ptr nonnull %7)
  call void @llvm.lifetime.end.p0(i64 16, ptr nonnull %8)
  ret void
}